ccopy_reg
_reconstructor
p0
(csklearn.linear_model.base
LinearRegression
p1
c__builtin__
object
p2
Ntp3
Rp4
(dp5
S'normalize'
p6
I00
sS'n_jobs'
p7
I-1
sS'rank_'
p8
I4
sS'fit_intercept'
p9
I01
sS'_residues'
p10
cnumpy.core.multiarray
scalar
p11
(cnumpy
dtype
p12
(S'f8'
p13
I0
I1
tp14
Rp15
(I3
S'<'
p16
NNNI-1
I-1
I0
tp17
bS'\x84\t\xab\xdf\xb7+DA'
p18
tp19
Rp20
sS'coef_'
p21
cnumpy.core.multiarray
_reconstruct
p22
(cnumpy
ndarray
p23
(I0
tp24
S'b'
p25
tp26
Rp27
(I1
(I4
tp28
g15
I00
S'\xfb\x00\x1fJ\xc8xe@\x10\x14\x9b9NW\xfa\xbf\xac\xbcF\xc19t\xf2\xbf\xdaS\x855\xc5N\r\xc0'
p29
tp30
bsS'copy_X'
p31
I01
sS'intercept_'
p32
g11
(g15
S'\x04\xef\xb22\xf9Lu@'
p33
tp34
Rp35
sS'singular_'
p36
g22
(g23
(I0
tp37
g25
tp38
Rp39
(I1
(I4
tp40
g15
I00
S'+X\x05\x90\x9c\x1cQ@\xad\xf5Xq\n@L@h|0\xd6|2@@\xf4\\3\xc2=$5@'
p41
tp42
bsb.